; Function Attrs: mustprogress nofree norecurse nosync nounwind willreturn memory(read, inaccessiblemem: none) uwtable
define noundef i64 @_ZNK11OpenImageIO6v3_1_08DeepData11channelsizeEi(ptr noundef nonnull readonly align 8 captures(none) dereferenceable(20) %0, i32 noundef %1) local_unnamed_addr #12 align 2 {
  %3 = icmp sgt i32 %1, -1
  %4 = getelementptr inbounds nuw i8, ptr %0, i64 16
  %5 = load i32, ptr %4, align 8
  %6 = icmp slt i32 %1, %5
  %or.cond = select i1 %3, i1 %6, i1 false
  br i1 %or.cond, label %7, label %14

7:                                                ; preds = %2
  %8 = load ptr, ptr %0, align 8, !tbaa !35
  %9 = getelementptr inbounds nuw i8, ptr %8, i64 24
  %10 = zext nneg i32 %1 to i64
  %11 = load ptr, ptr %9, align 8, !tbaa !57
  %12 = getelementptr inbounds nuw i64, ptr %11, i64 %10
  %13 = load i64, ptr %12, align 8, !tbaa !96
  br label %14

14:                                               ; preds = %2, %7
  %15 = phi i64 [ %13, %7 ], [ 0, %2 ]
  ret i64 %15
}